target datalayout = "e-m:e-p270:32:32-p271:32:32-p272:64:64-i64:64-i128:128-f80:128-n8:16:32:64-S128"
target triple = "x86_64-pc-linux-gnu"

@.str.2 = private unnamed_addr constant [63 x i8] c"Strange, the input file does not have spaces and new-lines...\0A\00", align 1
@.str.3 = private unnamed_addr constant [60 x i8] c"Does not look like the input file contains truth tables...\0A\00", align 1

; Function Attrs: nounwind uwtable
define void @Abc_TruthGetParams(ptr noundef %0, ptr noundef %1, ptr noundef %2) #0 {
  %4 = alloca ptr, align 8
  %5 = alloca ptr, align 8
  %6 = alloca ptr, align 8
  %7 = alloca ptr, align 8
  %8 = alloca i32, align 4
  %9 = alloca i32, align 4
  %10 = alloca i32, align 4
  %11 = alloca i32, align 4
  store ptr %0, ptr %4, align 8, !tbaa !8
  store ptr %1, ptr %5, align 8, !tbaa !30
  store ptr %2, ptr %6, align 8, !tbaa !30
  call void @llvm.lifetime.start.p0(i64 8, ptr %7) #12
  call void @llvm.lifetime.start.p0(i64 4, ptr %8) #12
  call void @llvm.lifetime.start.p0(i64 4, ptr %9) #12
  call void @llvm.lifetime.start.p0(i64 4, ptr %10) #12
  %12 = load ptr, ptr %5, align 8, !tbaa !30
  %13 = icmp ne ptr %12, null
  br i1 %13, label %14, label %16

14:                                               ; preds = %3
  %15 = load ptr, ptr %5, align 8, !tbaa !30
  store i32 0, ptr %15, align 4, !tbaa !10
  br label %16

16:                                               ; preds = %14, %3
  %17 = load ptr, ptr %6, align 8, !tbaa !30
  %18 = icmp ne ptr %17, null
  br i1 %18, label %19, label %21

19:                                               ; preds = %16
  %20 = load ptr, ptr %6, align 8, !tbaa !30
  store i32 0, ptr %20, align 4, !tbaa !10
  br label %21

21:                                               ; preds = %19, %16
  %22 = load ptr, ptr %4, align 8, !tbaa !8
  %23 = call ptr @Abc_FileRead(ptr noundef %22)
  store ptr %23, ptr %7, align 8, !tbaa !8
  %24 = load ptr, ptr %7, align 8, !tbaa !8
  %25 = icmp eq ptr %24, null
  br i1 %25, label %26, label %27

26:                                               ; preds = %21
  store i32 1, ptr %11, align 4
  br label %153

27:                                               ; preds = %21
  store i32 0, ptr %8, align 4, !tbaa !10
  br label %28

28:                                               ; preds = %61, %27
  %29 = load ptr, ptr %7, align 8, !tbaa !8
  %30 = load i32, ptr %8, align 4, !tbaa !10
  %31 = sext i32 %30 to i64
  %32 = getelementptr inbounds i8, ptr %29, i64 %31
  %33 = load i8, ptr %32, align 1, !tbaa !12
  %34 = icmp ne i8 %33, 0
  br i1 %34, label %35, label %64

35:                                               ; preds = %28
  %36 = load ptr, ptr %7, align 8, !tbaa !8
  %37 = load i32, ptr %8, align 4, !tbaa !10
  %38 = sext i32 %37 to i64
  %39 = getelementptr inbounds i8, ptr %36, i64 %38
  %40 = load i8, ptr %39, align 1, !tbaa !12
  %41 = sext i8 %40 to i32
  %42 = icmp eq i32 %41, 32
  br i1 %42, label %59, label %43

43:                                               ; preds = %35
  %44 = load ptr, ptr %7, align 8, !tbaa !8
  %45 = load i32, ptr %8, align 4, !tbaa !10
  %46 = sext i32 %45 to i64
  %47 = getelementptr inbounds i8, ptr %44, i64 %46
  %48 = load i8, ptr %47, align 1, !tbaa !12
  %49 = sext i8 %48 to i32
  %50 = icmp eq i32 %49, 10
  br i1 %50, label %59, label %51

51:                                               ; preds = %43
  %52 = load ptr, ptr %7, align 8, !tbaa !8
  %53 = load i32, ptr %8, align 4, !tbaa !10
  %54 = sext i32 %53 to i64
  %55 = getelementptr inbounds i8, ptr %52, i64 %54
  %56 = load i8, ptr %55, align 1, !tbaa !12
  %57 = sext i8 %56 to i32
  %58 = icmp eq i32 %57, 13
  br i1 %58, label %59, label %60

59:                                               ; preds = %51, %43, %35
  br label %64

60:                                               ; preds = %51
  br label %61

61:                                               ; preds = %60
  %62 = load i32, ptr %8, align 4, !tbaa !10
  %63 = add nsw i32 %62, 1
  store i32 %63, ptr %8, align 4, !tbaa !10
  br label %28, !llvm.loop !32

64:                                               ; preds = %59, %28
  %65 = load ptr, ptr %7, align 8, !tbaa !8
  %66 = load i32, ptr %8, align 4, !tbaa !10
  %67 = sext i32 %66 to i64
  %68 = getelementptr inbounds i8, ptr %65, i64 %67
  %69 = load i8, ptr %68, align 1, !tbaa !12
  %70 = sext i8 %69 to i32
  %71 = icmp eq i32 %70, 0
  br i1 %71, label %72, label %74

72:                                               ; preds = %64
  %73 = call i32 (ptr, ...) @printf(ptr noundef @.str.2)
  br label %74

74:                                               ; preds = %72, %64
  %75 = load ptr, ptr %7, align 8, !tbaa !8
  %76 = getelementptr inbounds i8, ptr %75, i64 0
  %77 = load i8, ptr %76, align 1, !tbaa !12
  %78 = sext i8 %77 to i32
  %79 = icmp eq i32 %78, 48
  br i1 %79, label %80, label %89

80:                                               ; preds = %74
  %81 = load ptr, ptr %7, align 8, !tbaa !8
  %82 = getelementptr inbounds i8, ptr %81, i64 1
  %83 = load i8, ptr %82, align 1, !tbaa !12
  %84 = sext i8 %83 to i32
  %85 = icmp eq i32 %84, 120
  br i1 %85, label %86, label %89

86:                                               ; preds = %80
  %87 = load i32, ptr %8, align 4, !tbaa !10
  %88 = sub nsw i32 %87, 2
  store i32 %88, ptr %8, align 4, !tbaa !10
  br label %89

89:                                               ; preds = %86, %80, %74
  store i32 0, ptr %9, align 4, !tbaa !10
  br label %90

90:                                               ; preds = %101, %89
  %91 = load i32, ptr %9, align 4, !tbaa !10
  %92 = icmp slt i32 %91, 32
  br i1 %92, label %93, label %104

93:                                               ; preds = %90
  %94 = load i32, ptr %8, align 4, !tbaa !10
  %95 = mul nsw i32 4, %94
  %96 = load i32, ptr %9, align 4, !tbaa !10
  %97 = shl i32 1, %96
  %98 = icmp eq i32 %95, %97
  br i1 %98, label %99, label %100

99:                                               ; preds = %93
  br label %104

100:                                              ; preds = %93
  br label %101

101:                                              ; preds = %100
  %102 = load i32, ptr %9, align 4, !tbaa !10
  %103 = add nsw i32 %102, 1
  store i32 %103, ptr %9, align 4, !tbaa !10
  br label %90, !llvm.loop !33

104:                                              ; preds = %99, %90
  %105 = load i32, ptr %9, align 4, !tbaa !10
  %106 = icmp slt i32 %105, 2
  br i1 %106, label %110, label %107

107:                                              ; preds = %104
  %108 = load i32, ptr %9, align 4, !tbaa !10
  %109 = icmp sgt i32 %108, 16
  br i1 %109, label %110, label %112

110:                                              ; preds = %107, %104
  %111 = call i32 (ptr, ...) @printf(ptr noundef @.str.3)
  store i32 1, ptr %11, align 4
  br label %153

112:                                              ; preds = %107
  %113 = load ptr, ptr %5, align 8, !tbaa !30
  %114 = icmp ne ptr %113, null
  br i1 %114, label %115, label %118

115:                                              ; preds = %112
  %116 = load i32, ptr %9, align 4, !tbaa !10
  %117 = load ptr, ptr %5, align 8, !tbaa !30
  store i32 %116, ptr %117, align 4, !tbaa !10
  br label %118

118:                                              ; preds = %115, %112
  store i32 0, ptr %10, align 4, !tbaa !10
  store i32 0, ptr %8, align 4, !tbaa !10
  br label %119

119:                                              ; preds = %137, %118
  %120 = load ptr, ptr %7, align 8, !tbaa !8
  %121 = load i32, ptr %8, align 4, !tbaa !10
  %122 = sext i32 %121 to i64
  %123 = getelementptr inbounds i8, ptr %120, i64 %122
  %124 = load i8, ptr %123, align 1, !tbaa !12
  %125 = icmp ne i8 %124, 0
  br i1 %125, label %126, label %140

126:                                              ; preds = %119
  %127 = load ptr, ptr %7, align 8, !tbaa !8
  %128 = load i32, ptr %8, align 4, !tbaa !10
  %129 = sext i32 %128 to i64
  %130 = getelementptr inbounds i8, ptr %127, i64 %129
  %131 = load i8, ptr %130, align 1, !tbaa !12
  %132 = sext i8 %131 to i32
  %133 = icmp eq i32 %132, 10
  %134 = zext i1 %133 to i32
  %135 = load i32, ptr %10, align 4, !tbaa !10
  %136 = add nsw i32 %135, %134
  store i32 %136, ptr %10, align 4, !tbaa !10
  br label %137

137:                                              ; preds = %126
  %138 = load i32, ptr %8, align 4, !tbaa !10
  %139 = add nsw i32 %138, 1
  store i32 %139, ptr %8, align 4, !tbaa !10
  br label %119, !llvm.loop !34

140:                                              ; preds = %119
  %141 = load ptr, ptr %6, align 8, !tbaa !30
  %142 = icmp ne ptr %141, null
  br i1 %142, label %143, label %146

143:                                              ; preds = %140
  %144 = load i32, ptr %10, align 4, !tbaa !10
  %145 = load ptr, ptr %6, align 8, !tbaa !30
  store i32 %144, ptr %145, align 4, !tbaa !10
  br label %146

146:                                              ; preds = %143, %140
  %147 = load ptr, ptr %7, align 8, !tbaa !8
  %148 = icmp ne ptr %147, null
  br i1 %148, label %149, label %151

149:                                              ; preds = %146
  %150 = load ptr, ptr %7, align 8, !tbaa !8
  call void @free(ptr noundef %150) #12
  store ptr null, ptr %7, align 8, !tbaa !8
  br label %152

151:                                              ; preds = %146
  br label %152

152:                                              ; preds = %151, %149
  store i32 0, ptr %11, align 4
  br label %153

153:                                              ; preds = %152, %110, %26
  call void @llvm.lifetime.end.p0(i64 4, ptr %10) #12
  call void @llvm.lifetime.end.p0(i64 4, ptr %9) #12
  call void @llvm.lifetime.end.p0(i64 4, ptr %8) #12
  call void @llvm.lifetime.end.p0(i64 8, ptr %7) #12
  %154 = load i32, ptr %11, align 4
  switch i32 %154, label %156 [
    i32 0, label %155
    i32 1, label %155
  ]

155:                                              ; preds = %153, %153
  ret void

156:                                              ; preds = %153
  unreachable
}