; Function Attrs: nounwind uwtable
define void @Abc_TruthGetParams(ptr noundef %0, ptr noundef writeonly %1, ptr noundef writeonly %2) local_unnamed_addr #9 {
  %.not = icmp eq ptr %1, null
  br i1 %.not, label %5, label %4

4:                                                ; preds = %3
  store i32 0, ptr %1, align 4, !tbaa !23
  br label %5

5:                                                ; preds = %4, %3
  %.not50 = icmp eq ptr %2, null
  br i1 %.not50, label %7, label %6

6:                                                ; preds = %5
  store i32 0, ptr %2, align 4, !tbaa !23
  br label %7

7:                                                ; preds = %6, %5
  %8 = tail call ptr @Abc_FileRead(ptr noundef %0)
  %9 = icmp eq ptr %8, null
  br i1 %9, label %42, label %.preheader

.preheader:                                       ; preds = %7, %12
  %indvars.iv = phi i64 [ %indvars.iv.next, %12 ], [ 0, %7 ]
  %10 = getelementptr inbounds nuw i8, ptr %8, i64 %indvars.iv
  %11 = load i8, ptr %10, align 1, !tbaa !3
  switch i8 %11, label %12 [
    i8 0, label %13
    i8 10, label %.loopexit
    i8 13, label %.loopexit
    i8 32, label %.loopexit
  ]

12:                                               ; preds = %.preheader
  %indvars.iv.next = add nuw nsw i64 %indvars.iv, 1
  br label %.preheader, !llvm.loop !24

13:                                               ; preds = %.preheader
  %puts = tail call i32 @puts(ptr nonnull dereferenceable(1) @str)
  br label %.loopexit

.loopexit:                                        ; preds = %.preheader, %.preheader, %.preheader, %13
  %14 = trunc i64 %indvars.iv to i32
  %15 = load i8, ptr %8, align 1, !tbaa !3
  %16 = icmp eq i8 %15, 48
  br i1 %16, label %17, label %22

17:                                               ; preds = %.loopexit
  %18 = getelementptr inbounds nuw i8, ptr %8, i64 1
  %19 = load i8, ptr %18, align 1, !tbaa !3
  %20 = icmp eq i8 %19, 120
  %21 = add nsw i32 %14, -2
  %spec.select = select i1 %20, i32 %21, i32 %14
  br label %22

22:                                               ; preds = %17, %.loopexit
  %.1 = phi i32 [ %14, %.loopexit ], [ %spec.select, %17 ]
  %23 = shl nsw i32 %.1, 2
  br label %24

24:                                               ; preds = %22, %27
  %.04058 = phi i32 [ 0, %22 ], [ %28, %27 ]
  %25 = shl nuw i32 1, %.04058
  %26 = icmp eq i32 %23, %25
  br i1 %26, label %29, label %27

27:                                               ; preds = %24
  %28 = add nuw nsw i32 %.04058, 1
  %exitcond.not = icmp eq i32 %28, 32
  br i1 %exitcond.not, label %.thread, label %24, !llvm.loop !25

29:                                               ; preds = %24
  %30 = add nsw i32 %.04058, -17
  %or.cond = icmp ult i32 %30, -15
  br i1 %or.cond, label %.thread, label %31

.thread:                                          ; preds = %27, %29
  %puts53 = tail call i32 @puts(ptr nonnull dereferenceable(1) @str.1)
  br label %42

31:                                               ; preds = %29
  br i1 %.not, label %33, label %32

32:                                               ; preds = %31
  store i32 %.04058, ptr %1, align 4, !tbaa !23
  br label %33

33:                                               ; preds = %32, %31
  %.not5259 = icmp eq i8 %15, 0
  br i1 %.not5259, label %._crit_edge, label %.lr.ph

.lr.ph:                                           ; preds = %33, %.lr.ph
  %indvars.iv66 = phi i64 [ %indvars.iv.next67, %.lr.ph ], [ 0, %33 ]
  %34 = phi i8 [ %39, %.lr.ph ], [ %15, %33 ]
  %.061 = phi i32 [ %37, %.lr.ph ], [ 0, %33 ]
  %35 = icmp eq i8 %34, 10
  %36 = zext i1 %35 to i32
  %37 = add nuw nsw i32 %.061, %36
  %indvars.iv.next67 = add nuw nsw i64 %indvars.iv66, 1
  %38 = getelementptr inbounds nuw i8, ptr %8, i64 %indvars.iv.next67
  %39 = load i8, ptr %38, align 1, !tbaa !3
  %.not52 = icmp eq i8 %39, 0
  br i1 %.not52, label %._crit_edge, label %.lr.ph, !llvm.loop !26

._crit_edge:                                      ; preds = %.lr.ph, %33
  %.0.lcssa = phi i32 [ 0, %33 ], [ %37, %.lr.ph ]
  br i1 %.not50, label %41, label %40

40:                                               ; preds = %._crit_edge
  store i32 %.0.lcssa, ptr %2, align 4, !tbaa !23
  br label %41

41:                                               ; preds = %._crit_edge, %40
  tail call void @free(ptr noundef nonnull %8) #21
  br label %42

42:                                               ; preds = %7, %41, %.thread
  ret void
}